; Function Attrs: mustprogress uwtable
define void @_ZNK6casadi17SundialsInterface6resetBEPNS_16IntegratorMemoryE(ptr nocapture noundef nonnull readonly align 8 dereferenceable(2120) %0, ptr nocapture noundef readonly %1) unnamed_addr #3 align 2 {
  %3 = getelementptr inbounds i8, ptr %1, i64 208
  %4 = load ptr, ptr %3, align 8
  %5 = getelementptr inbounds i8, ptr %0, i64 1720
  %6 = load i64, ptr %5, align 8
  %.not.i = icmp ne ptr %4, null
  %7 = icmp sgt i64 %6, 0
  %or.cond.i = and i1 %.not.i, %7
  br i1 %or.cond.i, label %.lr.ph.preheader.i, label %_ZN6casadi12casadi_clearIdEEvPT_x.exit

.lr.ph.preheader.i:                               ; preds = %2
  %8 = shl nuw i64 %6, 3
  tail call void @llvm.memset.p0.i64(ptr nonnull align 8 %4, i8 0, i64 %8, i1 false)
  br label %_ZN6casadi12casadi_clearIdEEvPT_x.exit

_ZN6casadi12casadi_clearIdEEvPT_x.exit:           ; preds = %2, %.lr.ph.preheader.i
  %9 = getelementptr inbounds i8, ptr %1, i64 168
  %10 = load ptr, ptr %9, align 8
  %11 = load ptr, ptr %10, align 8
  %12 = getelementptr inbounds i8, ptr %11, i64 16
  %13 = load ptr, ptr %12, align 8
  %14 = getelementptr inbounds i8, ptr %0, i64 1648
  %15 = load i64, ptr %14, align 8
  %16 = getelementptr inbounds i8, ptr %0, i64 1656
  %17 = load i64, ptr %16, align 8
  %18 = add nsw i64 %17, %15
  %.not.i5 = icmp ne ptr %13, null
  %19 = icmp sgt i64 %18, 0
  %or.cond.i6 = and i1 %.not.i5, %19
  br i1 %or.cond.i6, label %.lr.ph.preheader.i7, label %_ZN6casadi12casadi_clearIdEEvPT_x.exit8

.lr.ph.preheader.i7:                              ; preds = %_ZN6casadi12casadi_clearIdEEvPT_x.exit
  %20 = shl nuw i64 %18, 3
  tail call void @llvm.memset.p0.i64(ptr nonnull align 8 %13, i8 0, i64 %20, i1 false)
  br label %_ZN6casadi12casadi_clearIdEEvPT_x.exit8

_ZN6casadi12casadi_clearIdEEvPT_x.exit8:          ; preds = %_ZN6casadi12casadi_clearIdEEvPT_x.exit, %.lr.ph.preheader.i7
  %21 = getelementptr inbounds i8, ptr %1, i64 184
  %22 = load ptr, ptr %21, align 8
  tail call void @N_VConst(double noundef 0.000000e+00, ptr noundef %22)
  ret void
}